target datalayout = "e-m:e-p270:32:32-p271:32:32-p272:64:64-i64:64-i128:128-f80:128-n8:16:32:64-S128"
target triple = "x86_64-pc-linux-gnu"

%"class.llvm::FoldingSetNodeIDRef" = type { ptr, i64 }

; Function Attrs: mustprogress nounwind uwtable
define dso_local noundef zeroext i1 @_ZNK4llvm19FoldingSetNodeIDRefltES0_(ptr noundef nonnull align 8 dereferenceable(16) %0, ptr %1, i64 %2) #0 align 2 {
  %4 = alloca i1, align 1
  %5 = alloca %"class.llvm::FoldingSetNodeIDRef", align 8
  %6 = alloca ptr, align 8
  %7 = getelementptr inbounds nuw { ptr, i64 }, ptr %5, i32 0, i32 0
  store ptr %1, ptr %7, align 8
  %8 = getelementptr inbounds nuw { ptr, i64 }, ptr %5, i32 0, i32 1
  store i64 %2, ptr %8, align 8
  store ptr %0, ptr %6, align 8
  %9 = load ptr, ptr %6, align 8
  %10 = getelementptr inbounds nuw %"class.llvm::FoldingSetNodeIDRef", ptr %9, i32 0, i32 1
  %11 = load i64, ptr %10, align 8
  %12 = getelementptr inbounds nuw %"class.llvm::FoldingSetNodeIDRef", ptr %5, i32 0, i32 1
  %13 = load i64, ptr %12, align 8
  %14 = icmp ne i64 %11, %13
  br i1 %14, label %15, label %21

15:                                               ; preds = %3
  %16 = getelementptr inbounds nuw %"class.llvm::FoldingSetNodeIDRef", ptr %9, i32 0, i32 1
  %17 = load i64, ptr %16, align 8
  %18 = getelementptr inbounds nuw %"class.llvm::FoldingSetNodeIDRef", ptr %5, i32 0, i32 1
  %19 = load i64, ptr %18, align 8
  %20 = icmp ult i64 %17, %19
  store i1 %20, ptr %4, align 1
  br label %31

21:                                               ; preds = %3
  %22 = getelementptr inbounds nuw %"class.llvm::FoldingSetNodeIDRef", ptr %9, i32 0, i32 0
  %23 = load ptr, ptr %22, align 8
  %24 = getelementptr inbounds nuw %"class.llvm::FoldingSetNodeIDRef", ptr %5, i32 0, i32 0
  %25 = load ptr, ptr %24, align 8
  %26 = getelementptr inbounds nuw %"class.llvm::FoldingSetNodeIDRef", ptr %9, i32 0, i32 1
  %27 = load i64, ptr %26, align 8
  %28 = mul i64 %27, 4
  %29 = call i32 @memcmp(ptr noundef %23, ptr noundef %25, i64 noundef %28) #10
  %30 = icmp slt i32 %29, 0
  store i1 %30, ptr %4, align 1
  br label %31

31:                                               ; preds = %21, %15
  %32 = load i1, ptr %4, align 1
  ret i1 %32
}