; Function Attrs: mustprogress nofree nounwind willreturn memory(read, inaccessiblemem: none) uwtable
define dso_local noundef zeroext i1 @_ZNK4llvm19FoldingSetNodeIDRefltES0_(ptr nocapture noundef nonnull readonly align 8 dereferenceable(16) %0, ptr nocapture readonly %1, i64 %2) local_unnamed_addr #0 align 2 {
  %4 = getelementptr inbounds nuw i8, ptr %0, i64 8
  %5 = load i64, ptr %4, align 8
  %.not = icmp eq i64 %5, %2
  br i1 %.not, label %8, label %6

6:                                                ; preds = %3
  %7 = icmp ult i64 %5, %2
  br label %13

8:                                                ; preds = %3
  %9 = load ptr, ptr %0, align 8
  %10 = shl i64 %2, 2
  %11 = tail call i32 @memcmp(ptr noundef %9, ptr noundef %1, i64 noundef %10) #20
  %12 = icmp slt i32 %11, 0
  br label %13

13:                                               ; preds = %8, %6
  %.0 = phi i1 [ %7, %6 ], [ %12, %8 ]
  ret i1 %.0
}